target datalayout = "e-m:e-p270:32:32-p271:32:32-p272:64:64-i64:64-i128:128-f80:128-n8:16:32:64-S128"
target triple = "x86_64-pc-linux-gnu"

%struct.Tuplesortstate = type { %struct.TuplesortPublic, i32, i8, i8, i32, i64, i64, i64, i32, i64, i8, i32, ptr, ptr, i32, i32, i8, i8, ptr, ptr, ptr, i64, ptr, i32, ptr, i32, i32, ptr, i32, i32, ptr, ptr, i32, i8, i64, i32, i8, i32, ptr, i32, i64, %struct.PGRUsage }
%struct.TuplesortPublic = type { ptr, ptr, ptr, ptr, ptr, ptr, ptr, ptr, ptr, i8, i32, ptr, ptr, i32, i8, ptr }
%struct.PGRUsage = type { %struct.timeval, %struct.rusage }
%struct.timeval = type { i64, i64 }
%struct.rusage = type { %struct.timeval, %struct.timeval, %union.anon, %union.anon.0, %union.anon.1, %union.anon.2, %union.anon.3, %union.anon.4, %union.anon.5, %union.anon.6, %union.anon.7, %union.anon.8, %union.anon.9, %union.anon.10, %union.anon.11, %union.anon.12 }
%union.anon = type { i64 }
%union.anon.0 = type { i64 }
%union.anon.1 = type { i64 }
%union.anon.2 = type { i64 }
%union.anon.3 = type { i64 }
%union.anon.4 = type { i64 }
%union.anon.5 = type { i64 }
%union.anon.6 = type { i64 }
%union.anon.7 = type { i64 }
%union.anon.8 = type { i64 }
%union.anon.9 = type { i64 }
%union.anon.10 = type { i64 }
%union.anon.11 = type { i64 }
%union.anon.12 = type { i64 }
%struct.Sharedsort = type { i8, i32, i32, %struct.SharedFileSet, i32, [0 x %struct.TapeShare] }
%struct.SharedFileSet = type { %struct.FileSet, i8, i32 }
%struct.FileSet = type { i32, i32, i32, [8 x i32] }
%struct.TapeShare = type { i64 }

@trace_sort = dso_local global i8 0, align 1
@.str.1 = private unnamed_addr constant [12 x i8] c"tuplesort.c\00", align 1
@.str.28 = private unnamed_addr constant [55 x i8] c"worker %d switching to external sort with %d tapes: %s\00", align 1
@__func__.inittapes = private unnamed_addr constant [10 x i8] c"inittapes\00", align 1

; Function Attrs: nounwind uwtable
define internal void @selectnewtape(ptr noundef %0) #0 {
  %2 = alloca ptr, align 8
  store ptr %0, ptr %2, align 8
  %3 = load ptr, ptr %2, align 8
  %4 = getelementptr inbounds nuw %struct.Tuplesortstate, ptr %3, i32 0, i32 28
  %5 = load i32, ptr %4, align 8
  %6 = load ptr, ptr %2, align 8
  %7 = getelementptr inbounds nuw %struct.Tuplesortstate, ptr %6, i32 0, i32 8
  %8 = load i32, ptr %7, align 8
  %9 = icmp slt i32 %5, %8
  br i1 %9, label %10, label %36

10:                                               ; preds = %1
  %11 = load ptr, ptr %2, align 8
  %12 = getelementptr inbounds nuw %struct.Tuplesortstate, ptr %11, i32 0, i32 12
  %13 = load ptr, ptr %12, align 8
  %14 = call ptr @LogicalTapeCreate(ptr noundef %13)
  %15 = load ptr, ptr %2, align 8
  %16 = getelementptr inbounds nuw %struct.Tuplesortstate, ptr %15, i32 0, i32 30
  store ptr %14, ptr %16, align 8
  %17 = load ptr, ptr %2, align 8
  %18 = getelementptr inbounds nuw %struct.Tuplesortstate, ptr %17, i32 0, i32 30
  %19 = load ptr, ptr %18, align 8
  %20 = load ptr, ptr %2, align 8
  %21 = getelementptr inbounds nuw %struct.Tuplesortstate, ptr %20, i32 0, i32 27
  %22 = load ptr, ptr %21, align 8
  %23 = load ptr, ptr %2, align 8
  %24 = getelementptr inbounds nuw %struct.Tuplesortstate, ptr %23, i32 0, i32 28
  %25 = load i32, ptr %24, align 8
  %26 = sext i32 %25 to i64
  %27 = getelementptr inbounds ptr, ptr %22, i64 %26
  store ptr %19, ptr %27, align 8
  %28 = load ptr, ptr %2, align 8
  %29 = getelementptr inbounds nuw %struct.Tuplesortstate, ptr %28, i32 0, i32 28
  %30 = load i32, ptr %29, align 8
  %31 = add i32 %30, 1
  store i32 %31, ptr %29, align 8
  %32 = load ptr, ptr %2, align 8
  %33 = getelementptr inbounds nuw %struct.Tuplesortstate, ptr %32, i32 0, i32 29
  %34 = load i32, ptr %33, align 4
  %35 = add i32 %34, 1
  store i32 %35, ptr %33, align 4
  br label %56

36:                                               ; preds = %1
  %37 = load ptr, ptr %2, align 8
  %38 = getelementptr inbounds nuw %struct.Tuplesortstate, ptr %37, i32 0, i32 27
  %39 = load ptr, ptr %38, align 8
  %40 = load ptr, ptr %2, align 8
  %41 = getelementptr inbounds nuw %struct.Tuplesortstate, ptr %40, i32 0, i32 29
  %42 = load i32, ptr %41, align 4
  %43 = load ptr, ptr %2, align 8
  %44 = getelementptr inbounds nuw %struct.Tuplesortstate, ptr %43, i32 0, i32 28
  %45 = load i32, ptr %44, align 8
  %46 = srem i32 %42, %45
  %47 = sext i32 %46 to i64
  %48 = getelementptr inbounds ptr, ptr %39, i64 %47
  %49 = load ptr, ptr %48, align 8
  %50 = load ptr, ptr %2, align 8
  %51 = getelementptr inbounds nuw %struct.Tuplesortstate, ptr %50, i32 0, i32 30
  store ptr %49, ptr %51, align 8
  %52 = load ptr, ptr %2, align 8
  %53 = getelementptr inbounds nuw %struct.Tuplesortstate, ptr %52, i32 0, i32 29
  %54 = load i32, ptr %53, align 4
  %55 = add i32 %54, 1
  store i32 %55, ptr %53, align 4
  br label %56

56:                                               ; preds = %36, %10
  ret void
}

; Function Attrs: nounwind uwtable
define internal void @inittapestate(ptr noundef %0, i32 noundef %1) #0 {
  %3 = alloca ptr, align 8
  %4 = alloca i32, align 4
  %5 = alloca i64, align 8
  store ptr %0, ptr %3, align 8
  store i32 %1, ptr %4, align 4
  call void @llvm.lifetime.start.p0(i64 8, ptr %5) #9
  %6 = load i32, ptr %4, align 4
  %7 = sext i32 %6 to i64
  %8 = mul i64 %7, 8192
  store i64 %8, ptr %5, align 8
  %9 = load i64, ptr %5, align 8
  %10 = load ptr, ptr %3, align 8
  %11 = getelementptr inbounds nuw %struct.Tuplesortstate, ptr %10, i32 0, i32 13
  %12 = load ptr, ptr %11, align 8
  %13 = call i64 @GetMemoryChunkSpace(ptr noundef %12)
  %14 = add i64 %9, %13
  %15 = load ptr, ptr %3, align 8
  %16 = getelementptr inbounds nuw %struct.Tuplesortstate, ptr %15, i32 0, i32 7
  %17 = load i64, ptr %16, align 8
  %18 = icmp ult i64 %14, %17
  br i1 %18, label %19, label %25

19:                                               ; preds = %2
  %20 = load i64, ptr %5, align 8
  %21 = load ptr, ptr %3, align 8
  %22 = getelementptr inbounds nuw %struct.Tuplesortstate, ptr %21, i32 0, i32 6
  %23 = load i64, ptr %22, align 8
  %24 = sub i64 %23, %20
  store i64 %24, ptr %22, align 8
  br label %25

25:                                               ; preds = %19, %2
  call void @PrepareTempTablespaces()
  call void @llvm.lifetime.end.p0(i64 8, ptr %5) #9
  ret void
}

; Function Attrs: nounwind uwtable
define dso_local i32 @tuplesort_merge_order(i64 noundef %0) #0 {
  %2 = alloca i64, align 8
  %3 = alloca i32, align 4
  store i64 %0, ptr %2, align 8
  call void @llvm.lifetime.start.p0(i64 4, ptr %3) #9
  %4 = load i64, ptr %2, align 8
  %5 = sdiv i64 %4, 278528
  %6 = trunc i64 %5 to i32
  store i32 %6, ptr %3, align 4
  %7 = load i32, ptr %3, align 4
  %8 = icmp sgt i32 %7, 6
  br i1 %8, label %9, label %11

9:                                                ; preds = %1
  %10 = load i32, ptr %3, align 4
  br label %12

11:                                               ; preds = %1
  br label %12

12:                                               ; preds = %11, %9
  %13 = phi i32 [ %10, %9 ], [ 6, %11 ]
  store i32 %13, ptr %3, align 4
  %14 = load i32, ptr %3, align 4
  %15 = icmp slt i32 %14, 500
  br i1 %15, label %16, label %18

16:                                               ; preds = %12
  %17 = load i32, ptr %3, align 4
  br label %19

18:                                               ; preds = %12
  br label %19

19:                                               ; preds = %18, %16
  %20 = phi i32 [ %17, %16 ], [ 500, %18 ]
  store i32 %20, ptr %3, align 4
  %21 = load i32, ptr %3, align 4
  call void @llvm.lifetime.end.p0(i64 4, ptr %3) #9
  ret i32 %21
}

; Function Attrs: nounwind uwtable
define internal void @inittapes(ptr noundef %0, i1 noundef zeroext %1) #0 {
  %3 = alloca ptr, align 8
  %4 = alloca i8, align 1
  store ptr %0, ptr %3, align 8
  %5 = zext i1 %1 to i8
  store i8 %5, ptr %4, align 1
  %6 = load i8, ptr %4, align 1, !range !4, !noundef !5
  %7 = trunc i8 %6 to i1
  br i1 %7, label %8, label %15

8:                                                ; preds = %2
  %9 = load ptr, ptr %3, align 8
  %10 = getelementptr inbounds nuw %struct.Tuplesortstate, ptr %9, i32 0, i32 7
  %11 = load i64, ptr %10, align 8
  %12 = call i32 @tuplesort_merge_order(i64 noundef %11)
  %13 = load ptr, ptr %3, align 8
  %14 = getelementptr inbounds nuw %struct.Tuplesortstate, ptr %13, i32 0, i32 8
  store i32 %12, ptr %14, align 8
  br label %18

15:                                               ; preds = %2
  %16 = load ptr, ptr %3, align 8
  %17 = getelementptr inbounds nuw %struct.Tuplesortstate, ptr %16, i32 0, i32 8
  store i32 6, ptr %17, align 8
  br label %18

18:                                               ; preds = %15, %8
  %19 = load i8, ptr @trace_sort, align 1, !range !4, !noundef !5
  %20 = trunc i8 %19 to i1
  br i1 %20, label %21, label %40

21:                                               ; preds = %18
  br label %22

22:                                               ; preds = %21
  br i1 false, label %23, label %25

23:                                               ; preds = %22
  %24 = call zeroext i1 @errstart_cold(i32 noundef 15, ptr noundef null) #10
  br i1 %24, label %27, label %38

25:                                               ; preds = %22
  %26 = call zeroext i1 @errstart(i32 noundef 15, ptr noundef null)
  br i1 %26, label %27, label %38

27:                                               ; preds = %25, %23
  %28 = load ptr, ptr %3, align 8
  %29 = getelementptr inbounds nuw %struct.Tuplesortstate, ptr %28, i32 0, i32 37
  %30 = load i32, ptr %29, align 8
  %31 = load ptr, ptr %3, align 8
  %32 = getelementptr inbounds nuw %struct.Tuplesortstate, ptr %31, i32 0, i32 8
  %33 = load i32, ptr %32, align 8
  %34 = load ptr, ptr %3, align 8
  %35 = getelementptr inbounds nuw %struct.Tuplesortstate, ptr %34, i32 0, i32 41
  %36 = call ptr @pg_rusage_show(ptr noundef %35)
  %37 = call i32 (ptr, ...) @errmsg_internal(ptr noundef @.str.28, i32 noundef %30, i32 noundef %33, ptr noundef %36)
  call void @errfinish(ptr noundef @.str.1, i32 noundef 1883, ptr noundef @__func__.inittapes)
  br label %38

38:                                               ; preds = %27, %25, %23
  br label %39

39:                                               ; preds = %38
  br label %40

40:                                               ; preds = %39, %18
  %41 = load ptr, ptr %3, align 8
  %42 = load ptr, ptr %3, align 8
  %43 = getelementptr inbounds nuw %struct.Tuplesortstate, ptr %42, i32 0, i32 8
  %44 = load i32, ptr %43, align 8
  call void @inittapestate(ptr noundef %41, i32 noundef %44)
  %45 = load ptr, ptr %3, align 8
  %46 = getelementptr inbounds nuw %struct.Tuplesortstate, ptr %45, i32 0, i32 38
  %47 = load ptr, ptr %46, align 8
  %48 = icmp ne ptr %47, null
  br i1 %48, label %49, label %54

49:                                               ; preds = %40
  %50 = load ptr, ptr %3, align 8
  %51 = getelementptr inbounds nuw %struct.Tuplesortstate, ptr %50, i32 0, i32 38
  %52 = load ptr, ptr %51, align 8
  %53 = getelementptr inbounds nuw %struct.Sharedsort, ptr %52, i32 0, i32 3
  br label %55

54:                                               ; preds = %40
  br label %55

55:                                               ; preds = %54, %49
  %56 = phi ptr [ %53, %49 ], [ null, %54 ]
  %57 = load ptr, ptr %3, align 8
  %58 = getelementptr inbounds nuw %struct.Tuplesortstate, ptr %57, i32 0, i32 37
  %59 = load i32, ptr %58, align 8
  %60 = call ptr @LogicalTapeSetCreate(i1 noundef zeroext false, ptr noundef %56, i32 noundef %59)
  %61 = load ptr, ptr %3, align 8
  %62 = getelementptr inbounds nuw %struct.Tuplesortstate, ptr %61, i32 0, i32 12
  store ptr %60, ptr %62, align 8
  %63 = load ptr, ptr %3, align 8
  %64 = getelementptr inbounds nuw %struct.Tuplesortstate, ptr %63, i32 0, i32 23
  store i32 0, ptr %64, align 8
  %65 = load ptr, ptr %3, align 8
  %66 = getelementptr inbounds nuw %struct.Tuplesortstate, ptr %65, i32 0, i32 24
  store ptr null, ptr %66, align 8
  %67 = load ptr, ptr %3, align 8
  %68 = getelementptr inbounds nuw %struct.Tuplesortstate, ptr %67, i32 0, i32 25
  store i32 0, ptr %68, align 8
  %69 = load ptr, ptr %3, align 8
  %70 = getelementptr inbounds nuw %struct.Tuplesortstate, ptr %69, i32 0, i32 26
  store i32 0, ptr %70, align 4
  %71 = load ptr, ptr %3, align 8
  %72 = getelementptr inbounds nuw %struct.Tuplesortstate, ptr %71, i32 0, i32 8
  %73 = load i32, ptr %72, align 8
  %74 = sext i32 %73 to i64
  %75 = mul i64 %74, 8
  %76 = call ptr @palloc0(i64 noundef %75)
  %77 = load ptr, ptr %3, align 8
  %78 = getelementptr inbounds nuw %struct.Tuplesortstate, ptr %77, i32 0, i32 27
  store ptr %76, ptr %78, align 8
  %79 = load ptr, ptr %3, align 8
  %80 = getelementptr inbounds nuw %struct.Tuplesortstate, ptr %79, i32 0, i32 28
  store i32 0, ptr %80, align 8
  %81 = load ptr, ptr %3, align 8
  %82 = getelementptr inbounds nuw %struct.Tuplesortstate, ptr %81, i32 0, i32 29
  store i32 0, ptr %82, align 4
  %83 = load ptr, ptr %3, align 8
  %84 = getelementptr inbounds nuw %struct.Tuplesortstate, ptr %83, i32 0, i32 1
  store i32 2, ptr %84, align 8
  %85 = load ptr, ptr %3, align 8
  call void @selectnewtape(ptr noundef %85)
  ret void
}