; Function Attrs: nounwind uwtable
define internal fastcc void @inittapes(ptr noundef initializes((152, 156)) %0, i1 noundef zeroext %1) unnamed_addr #0 {
  br i1 %1, label %3, label %10

3:                                                ; preds = %2
  %4 = getelementptr inbounds nuw i8, ptr %0, i64 144
  %5 = load i64, ptr %4, align 8
  %6 = sdiv i64 %5, 278528
  %7 = trunc i64 %6 to i32
  %8 = tail call i32 @llvm.smax.i32(i32 %7, i32 6)
  %9 = tail call range(i32 6, 501) i32 @llvm.umin.i32(i32 %8, i32 500)
  br label %10

10:                                               ; preds = %2, %3
  %.sink = phi i32 [ %9, %3 ], [ 6, %2 ]
  %11 = getelementptr inbounds nuw i8, ptr %0, i64 152
  store i32 %.sink, ptr %11, align 8
  %12 = load i8, ptr @trace_sort, align 1, !range !4, !noundef !5
  %13 = trunc nuw i8 %12 to i1
  br i1 %13, label %14, label %22

14:                                               ; preds = %10
  %15 = tail call zeroext i1 @errstart(i32 noundef 15, ptr noundef null) #13
  %.pre22 = load i32, ptr %11, align 8
  br i1 %15, label %16, label %22

16:                                               ; preds = %14
  %17 = getelementptr inbounds nuw i8, ptr %0, i64 328
  %18 = load i32, ptr %17, align 8
  %19 = getelementptr inbounds nuw i8, ptr %0, i64 360
  %20 = tail call ptr @pg_rusage_show(ptr noundef nonnull %19) #13
  %21 = tail call i32 (ptr, ...) @errmsg_internal(ptr noundef nonnull @.str.28, i32 noundef %18, i32 noundef %.pre22, ptr noundef %20) #13
  tail call void @errfinish(ptr noundef nonnull @.str.1, i32 noundef 1883, ptr noundef nonnull @__func__.inittapes) #13
  %.pre = load i32, ptr %11, align 8
  br label %22

22:                                               ; preds = %16, %14, %10
  %23 = phi i32 [ %.pre, %16 ], [ %.pre22, %14 ], [ %.sink, %10 ]
  %24 = sext i32 %23 to i64
  %25 = shl nsw i64 %24, 13
  %26 = getelementptr inbounds nuw i8, ptr %0, i64 184
  %27 = load ptr, ptr %26, align 8
  %28 = tail call i64 @GetMemoryChunkSpace(ptr noundef %27) #13
  %29 = add i64 %28, %25
  %30 = getelementptr inbounds nuw i8, ptr %0, i64 144
  %31 = load i64, ptr %30, align 8
  %32 = icmp ult i64 %29, %31
  br i1 %32, label %33, label %inittapestate.exit

33:                                               ; preds = %22
  %34 = getelementptr inbounds nuw i8, ptr %0, i64 136
  %35 = load i64, ptr %34, align 8
  %36 = sub i64 %35, %25
  store i64 %36, ptr %34, align 8
  br label %inittapestate.exit

inittapestate.exit:                               ; preds = %22, %33
  tail call void @PrepareTempTablespaces() #13
  %37 = getelementptr inbounds nuw i8, ptr %0, i64 336
  %38 = load ptr, ptr %37, align 8
  %.not = icmp eq ptr %38, null
  %39 = getelementptr inbounds nuw i8, ptr %38, i64 12
  %spec.select = select i1 %.not, ptr null, ptr %39
  %40 = getelementptr inbounds nuw i8, ptr %0, i64 328
  %41 = load i32, ptr %40, align 8
  %42 = tail call ptr @LogicalTapeSetCreate(i1 noundef zeroext false, ptr noundef %spec.select, i32 noundef %41) #13
  %43 = getelementptr inbounds nuw i8, ptr %0, i64 176
  store ptr %42, ptr %43, align 8
  %44 = getelementptr inbounds nuw i8, ptr %0, i64 248
  store i32 0, ptr %44, align 8
  %45 = getelementptr inbounds nuw i8, ptr %0, i64 256
  tail call void @llvm.memset.p0.i64(ptr noundef nonnull align 8 dereferenceable(16) %45, i8 0, i64 16, i1 false)
  %46 = load i32, ptr %11, align 8
  %47 = sext i32 %46 to i64
  %48 = shl nsw i64 %47, 3
  %49 = tail call ptr @palloc0(i64 noundef %48) #13
  %50 = getelementptr inbounds nuw i8, ptr %0, i64 272
  store ptr %49, ptr %50, align 8
  %51 = getelementptr inbounds nuw i8, ptr %0, i64 280
  store i32 0, ptr %51, align 8
  %52 = getelementptr inbounds nuw i8, ptr %0, i64 284
  store i32 0, ptr %52, align 4
  %53 = getelementptr inbounds nuw i8, ptr %0, i64 112
  store i32 2, ptr %53, align 8
  %54 = load i32, ptr %11, align 8
  %55 = icmp sgt i32 %54, 0
  tail call void @llvm.assume(i1 %55)
  %56 = load ptr, ptr %43, align 8
  %57 = tail call ptr @LogicalTapeCreate(ptr noundef %56) #13
  %58 = getelementptr inbounds nuw i8, ptr %0, i64 288
  store ptr %57, ptr %58, align 8
  %59 = load ptr, ptr %50, align 8
  %60 = load i32, ptr %51, align 8
  %61 = sext i32 %60 to i64
  %62 = getelementptr inbounds ptr, ptr %59, i64 %61
  store ptr %57, ptr %62, align 8
  %63 = load i32, ptr %51, align 8
  %64 = add i32 %63, 1
  store i32 %64, ptr %51, align 8
  %65 = load i32, ptr %52, align 4
  %66 = add i32 %65, 1
  store i32 %66, ptr %52, align 4
  ret void
}